target datalayout = "e-m:e-p270:32:32-p271:32:32-p272:64:64-i64:64-i128:128-f80:128-n8:16:32:64-S128"
target triple = "x86_64-unknown-linux-gnu"

%"class.std::basic_string_view" = type { i64, ptr }
%"class.std::__cxx11::basic_string" = type { %"struct.std::__cxx11::basic_string<char>::_Alloc_hider", i64, %union.anon }
%"struct.std::__cxx11::basic_string<char>::_Alloc_hider" = type { ptr }
%union.anon = type { i64, [8 x i8] }
%"class.absl::lts_20230802::str_format_internal::FormatSpecTemplate" = type { %"class.absl::lts_20230802::UntypedFormatSpec" }
%"class.absl::lts_20230802::UntypedFormatSpec" = type { %"class.absl::lts_20230802::str_format_internal::UntypedFormatSpecImpl" }
%"class.absl::lts_20230802::str_format_internal::UntypedFormatSpecImpl" = type { ptr, i64 }
%"class.absl::lts_20230802::Span" = type { ptr, i64 }
%"class.std::initializer_list" = type { ptr, i64 }
%"class.absl::lts_20230802::str_format_internal::FormatArgImpl" = type { %"union.absl::lts_20230802::str_format_internal::FormatArgImpl::Data", ptr }
%"union.absl::lts_20230802::str_format_internal::FormatArgImpl::Data" = type { ptr }

@.str = private unnamed_addr constant [14 x i8] c"%s [parts:%x]\00", align 1

; Function Attrs: mustprogress nounwind uwtable
define linkonce_odr ptr @_ZN4absl12lts_2023080219str_format_internal13FormatArgImpl7ManagerItLNS2_13StoragePolicyE2EE8SetValueERKt(ptr noundef nonnull align 2 dereferenceable(2) %value) #4 comdat align 2 {
entry:
  %retval = alloca %"union.absl::lts_20230802::str_format_internal::FormatArgImpl::Data", align 8
  %value.addr = alloca ptr, align 8
  store ptr %value, ptr %value.addr, align 8
  %arraydecay = getelementptr inbounds [8 x i8], ptr %retval, i64 0, i64 0
  %0 = load ptr, ptr %value.addr, align 8
  call void @llvm.memcpy.p0.p0.i64(ptr align 8 %arraydecay, ptr align 2 %0, i64 2, i1 false)
  %coerce.dive = getelementptr inbounds %"union.absl::lts_20230802::str_format_internal::FormatArgImpl::Data", ptr %retval, i32 0, i32 0
  %1 = load ptr, ptr %coerce.dive, align 8
  ret ptr %1
}

; Function Attrs: mustprogress nounwind uwtable
define linkonce_odr ptr @_ZN4absl12lts_2023080219str_format_internal13FormatArgImpl7ManagerINSt7__cxx1112basic_stringIcSt11char_traitsIcESaIcEEELNS2_13StoragePolicyE0EE8SetValueERKS9_(ptr noundef nonnull align 8 dereferenceable(32) %value) #4 comdat align 2 {
entry:
  %retval = alloca %"union.absl::lts_20230802::str_format_internal::FormatArgImpl::Data", align 8
  %value.addr = alloca ptr, align 8
  store ptr %value, ptr %value.addr, align 8
  %0 = load ptr, ptr %value.addr, align 8
  store ptr %0, ptr %retval, align 8
  %coerce.dive = getelementptr inbounds %"union.absl::lts_20230802::str_format_internal::FormatArgImpl::Data", ptr %retval, i32 0, i32 0
  %1 = load ptr, ptr %coerce.dive, align 8
  ret ptr %1
}

; Function Attrs: mustprogress nounwind uwtable
define linkonce_odr noundef i64 @_ZNKSt17basic_string_viewIcSt11char_traitsIcEE4sizeEv(ptr noundef nonnull align 8 dereferenceable(16) %this) #4 comdat align 2 {
entry:
  %this.addr = alloca ptr, align 8
  store ptr %this, ptr %this.addr, align 8
  %this1 = load ptr, ptr %this.addr, align 8
  %_M_len = getelementptr inbounds %"class.std::basic_string_view", ptr %this1, i32 0, i32 0
  %0 = load i64, ptr %_M_len, align 8
  ret i64 %0
}

; Function Attrs: mustprogress nounwind uwtable
define linkonce_odr noundef ptr @_ZNKSt17basic_string_viewIcSt11char_traitsIcEE4dataEv(ptr noundef nonnull align 8 dereferenceable(16) %this) #4 comdat align 2 {
entry:
  %this.addr = alloca ptr, align 8
  store ptr %this, ptr %this.addr, align 8
  %this1 = load ptr, ptr %this.addr, align 8
  %_M_str = getelementptr inbounds %"class.std::basic_string_view", ptr %this1, i32 0, i32 1
  %0 = load ptr, ptr %_M_str, align 8
  ret ptr %0
}

; Function Attrs: mustprogress nounwind uwtable
define linkonce_odr void @_ZN4absl12lts_202308024SpanIKNS0_19str_format_internal13FormatArgImplEEC2EPS4_m(ptr noundef nonnull align 8 dereferenceable(16) %this, ptr noundef %array, i64 noundef %length) unnamed_addr #4 comdat align 2 {
entry:
  %this.addr = alloca ptr, align 8
  %array.addr = alloca ptr, align 8
  %length.addr = alloca i64, align 8
  store ptr %this, ptr %this.addr, align 8
  store ptr %array, ptr %array.addr, align 8
  store i64 %length, ptr %length.addr, align 8
  %this1 = load ptr, ptr %this.addr, align 8
  %ptr_ = getelementptr inbounds %"class.absl::lts_20230802::Span", ptr %this1, i32 0, i32 0
  %0 = load ptr, ptr %array.addr, align 8
  store ptr %0, ptr %ptr_, align 8
  %len_ = getelementptr inbounds %"class.absl::lts_20230802::Span", ptr %this1, i32 0, i32 1
  %1 = load i64, ptr %length.addr, align 8
  store i64 %1, ptr %len_, align 8
  ret void
}

; Function Attrs: mustprogress nounwind uwtable
define linkonce_odr noundef i64 @_ZNKSt16initializer_listIN4absl12lts_2023080219str_format_internal13FormatArgImplEE4sizeEv(ptr noundef nonnull align 8 dereferenceable(16) %this) #4 comdat align 2 {
entry:
  %this.addr = alloca ptr, align 8
  store ptr %this, ptr %this.addr, align 8
  %this1 = load ptr, ptr %this.addr, align 8
  %_M_len = getelementptr inbounds %"class.std::initializer_list", ptr %this1, i32 0, i32 1
  %0 = load i64, ptr %_M_len, align 8
  ret i64 %0
}

; Function Attrs: mustprogress nounwind uwtable
define linkonce_odr noundef ptr @_ZNKSt16initializer_listIN4absl12lts_2023080219str_format_internal13FormatArgImplEE5beginEv(ptr noundef nonnull align 8 dereferenceable(16) %this) #4 comdat align 2 {
entry:
  %this.addr = alloca ptr, align 8
  store ptr %this, ptr %this.addr, align 8
  %this1 = load ptr, ptr %this.addr, align 8
  %_M_array = getelementptr inbounds %"class.std::initializer_list", ptr %this1, i32 0, i32 0
  %0 = load ptr, ptr %_M_array, align 8
  ret ptr %0
}

; Function Attrs: mustprogress uwtable
define linkonce_odr void @_ZN4absl12lts_2023080219str_format_internal13FormatArgImpl4InitItEEvRKT_(ptr noundef nonnull align 8 dereferenceable(16) %this, ptr noundef nonnull align 2 dereferenceable(2) %value) #5 comdat align 2 {
entry:
  %this.addr = alloca ptr, align 8
  %value.addr = alloca ptr, align 8
  %ref.tmp = alloca %"union.absl::lts_20230802::str_format_internal::FormatArgImpl::Data", align 8
  store ptr %this, ptr %this.addr, align 8
  store ptr %value, ptr %value.addr, align 8
  %this1 = load ptr, ptr %this.addr, align 8
  %0 = load ptr, ptr %value.addr, align 8
  %call = call ptr @_ZN4absl12lts_2023080219str_format_internal13FormatArgImpl7ManagerItLNS2_13StoragePolicyE2EE8SetValueERKt(ptr noundef nonnull align 2 dereferenceable(2) %0)
  %coerce.dive = getelementptr inbounds %"union.absl::lts_20230802::str_format_internal::FormatArgImpl::Data", ptr %ref.tmp, i32 0, i32 0
  store ptr %call, ptr %coerce.dive, align 8
  %data_ = getelementptr inbounds %"class.absl::lts_20230802::str_format_internal::FormatArgImpl", ptr %this1, i32 0, i32 0
  call void @llvm.memcpy.p0.p0.i64(ptr align 8 %data_, ptr align 8 %ref.tmp, i64 8, i1 false)
  %dispatcher_ = getelementptr inbounds %"class.absl::lts_20230802::str_format_internal::FormatArgImpl", ptr %this1, i32 0, i32 1
  store ptr @_ZN4absl12lts_2023080219str_format_internal13FormatArgImpl8DispatchItEEbNS2_4DataENS1_24FormatConversionSpecImplEPv, ptr %dispatcher_, align 8
  ret void
}

; Function Attrs: mustprogress uwtable
define linkonce_odr void @_ZN4absl12lts_2023080219str_format_internal13FormatArgImpl4InitINSt7__cxx1112basic_stringIcSt11char_traitsIcESaIcEEEEEvRKT_(ptr noundef nonnull align 8 dereferenceable(16) %this, ptr noundef nonnull align 8 dereferenceable(32) %value) #5 comdat align 2 {
entry:
  %this.addr = alloca ptr, align 8
  %value.addr = alloca ptr, align 8
  %ref.tmp = alloca %"union.absl::lts_20230802::str_format_internal::FormatArgImpl::Data", align 8
  store ptr %this, ptr %this.addr, align 8
  store ptr %value, ptr %value.addr, align 8
  %this1 = load ptr, ptr %this.addr, align 8
  %0 = load ptr, ptr %value.addr, align 8
  %call = call ptr @_ZN4absl12lts_2023080219str_format_internal13FormatArgImpl7ManagerINSt7__cxx1112basic_stringIcSt11char_traitsIcESaIcEEELNS2_13StoragePolicyE0EE8SetValueERKS9_(ptr noundef nonnull align 8 dereferenceable(32) %0)
  %coerce.dive = getelementptr inbounds %"union.absl::lts_20230802::str_format_internal::FormatArgImpl::Data", ptr %ref.tmp, i32 0, i32 0
  store ptr %call, ptr %coerce.dive, align 8
  %data_ = getelementptr inbounds %"class.absl::lts_20230802::str_format_internal::FormatArgImpl", ptr %this1, i32 0, i32 0
  call void @llvm.memcpy.p0.p0.i64(ptr align 8 %data_, ptr align 8 %ref.tmp, i64 8, i1 false)
  %dispatcher_ = getelementptr inbounds %"class.absl::lts_20230802::str_format_internal::FormatArgImpl", ptr %this1, i32 0, i32 1
  store ptr @_ZN4absl12lts_2023080219str_format_internal13FormatArgImpl8DispatchINSt7__cxx1112basic_stringIcSt11char_traitsIcESaIcEEEEEbNS2_4DataENS1_24FormatConversionSpecImplEPv, ptr %dispatcher_, align 8
  ret void
}

; Function Attrs: mustprogress nounwind uwtable
define linkonce_odr void @_ZN4absl12lts_2023080219str_format_internal21UntypedFormatSpecImplC2ESt17basic_string_viewIcSt11char_traitsIcEE(ptr noundef nonnull align 8 dereferenceable(16) %this, i64 %s.coerce0, ptr %s.coerce1) unnamed_addr #4 comdat align 2 {
entry:
  %s = alloca %"class.std::basic_string_view", align 8
  %this.addr = alloca ptr, align 8
  %0 = getelementptr inbounds { i64, ptr }, ptr %s, i32 0, i32 0
  store i64 %s.coerce0, ptr %0, align 8
  %1 = getelementptr inbounds { i64, ptr }, ptr %s, i32 0, i32 1
  store ptr %s.coerce1, ptr %1, align 8
  store ptr %this, ptr %this.addr, align 8
  %this1 = load ptr, ptr %this.addr, align 8
  %data_ = getelementptr inbounds %"class.absl::lts_20230802::str_format_internal::UntypedFormatSpecImpl", ptr %this1, i32 0, i32 0
  %call = call noundef ptr @_ZNKSt17basic_string_viewIcSt11char_traitsIcEE4dataEv(ptr noundef nonnull align 8 dereferenceable(16) %s) #3
  store ptr %call, ptr %data_, align 8
  %size_ = getelementptr inbounds %"class.absl::lts_20230802::str_format_internal::UntypedFormatSpecImpl", ptr %this1, i32 0, i32 1
  %call2 = call noundef i64 @_ZNKSt17basic_string_viewIcSt11char_traitsIcEE4sizeEv(ptr noundef nonnull align 8 dereferenceable(16) %s) #3
  store i64 %call2, ptr %size_, align 8
  ret void
}

; Function Attrs: mustprogress nounwind uwtable
define linkonce_odr noundef i64 @_ZNSt11char_traitsIcE6lengthEPKc(ptr noundef %__s) #4 comdat align 2 {
entry:
  %__s.addr = alloca ptr, align 8
  store ptr %__s, ptr %__s.addr, align 8
  %0 = load ptr, ptr %__s.addr, align 8
  %call = call i64 @strlen(ptr noundef %0) #3
  ret i64 %call
}

; Function Attrs: mustprogress nounwind uwtable
define linkonce_odr void @_ZN4absl12lts_202308024SpanIKNS0_19str_format_internal13FormatArgImplEEC2IS4_S4_EESt16initializer_listIS3_E(ptr noundef nonnull align 8 dereferenceable(16) %this, ptr %v.coerce0, i64 %v.coerce1) unnamed_addr #4 comdat align 2 {
entry:
  %v = alloca %"class.std::initializer_list", align 8
  %this.addr = alloca ptr, align 8
  %0 = getelementptr inbounds { ptr, i64 }, ptr %v, i32 0, i32 0
  store ptr %v.coerce0, ptr %0, align 8
  %1 = getelementptr inbounds { ptr, i64 }, ptr %v, i32 0, i32 1
  store i64 %v.coerce1, ptr %1, align 8
  store ptr %this, ptr %this.addr, align 8
  %this1 = load ptr, ptr %this.addr, align 8
  %call = call noundef ptr @_ZNKSt16initializer_listIN4absl12lts_2023080219str_format_internal13FormatArgImplEE5beginEv(ptr noundef nonnull align 8 dereferenceable(16) %v) #3
  %call2 = call noundef i64 @_ZNKSt16initializer_listIN4absl12lts_2023080219str_format_internal13FormatArgImplEE4sizeEv(ptr noundef nonnull align 8 dereferenceable(16) %v) #3
  call void @_ZN4absl12lts_202308024SpanIKNS0_19str_format_internal13FormatArgImplEEC2EPS4_m(ptr noundef nonnull align 8 dereferenceable(16) %this1, ptr noundef %call, i64 noundef %call2) #3
  ret void
}

; Function Attrs: mustprogress uwtable
define linkonce_odr void @_ZN4absl12lts_2023080219str_format_internal13FormatArgImplC2ItEERKT_(ptr noundef nonnull align 8 dereferenceable(16) %this, ptr noundef nonnull align 2 dereferenceable(2) %value) unnamed_addr #5 comdat align 2 {
entry:
  %this.addr = alloca ptr, align 8
  %value.addr = alloca ptr, align 8
  store ptr %this, ptr %this.addr, align 8
  store ptr %value, ptr %value.addr, align 8
  %this1 = load ptr, ptr %this.addr, align 8
  %0 = load ptr, ptr %value.addr, align 8
  call void @_ZN4absl12lts_2023080219str_format_internal13FormatArgImpl4InitItEEvRKT_(ptr noundef nonnull align 8 dereferenceable(16) %this1, ptr noundef nonnull align 2 dereferenceable(2) %0)
  ret void
}

; Function Attrs: mustprogress uwtable
define linkonce_odr void @_ZN4absl12lts_2023080219str_format_internal13FormatArgImplC2INSt7__cxx1112basic_stringIcSt11char_traitsIcESaIcEEEEERKT_(ptr noundef nonnull align 8 dereferenceable(16) %this, ptr noundef nonnull align 8 dereferenceable(32) %value) unnamed_addr #5 comdat align 2 {
entry:
  %this.addr = alloca ptr, align 8
  %value.addr = alloca ptr, align 8
  store ptr %this, ptr %this.addr, align 8
  store ptr %value, ptr %value.addr, align 8
  %this1 = load ptr, ptr %this.addr, align 8
  %0 = load ptr, ptr %value.addr, align 8
  call void @_ZN4absl12lts_2023080219str_format_internal13FormatArgImpl4InitINSt7__cxx1112basic_stringIcSt11char_traitsIcESaIcEEEEEvRKT_(ptr noundef nonnull align 8 dereferenceable(16) %this1, ptr noundef nonnull align 8 dereferenceable(32) %0)
  ret void
}

; Function Attrs: mustprogress nounwind uwtable
define linkonce_odr noundef nonnull align 8 dereferenceable(16) ptr @_ZN4absl12lts_2023080219str_format_internal21UntypedFormatSpecImpl7ExtractINS1_18FormatSpecTemplateIJLNS0_23FormatConversionCharSetE524292ELS5_655355EEEEEERKS2_RKT_(ptr noundef nonnull align 8 dereferenceable(16) %s) #4 comdat align 2 {
entry:
  %s.addr = alloca ptr, align 8
  store ptr %s, ptr %s.addr, align 8
  %0 = load ptr, ptr %s.addr, align 8
  %spec_ = getelementptr inbounds %"class.absl::lts_20230802::UntypedFormatSpec", ptr %0, i32 0, i32 0
  ret ptr %spec_
}

; Function Attrs: mustprogress uwtable
define linkonce_odr void @_ZN4absl12lts_2023080217UntypedFormatSpecC2ESt17basic_string_viewIcSt11char_traitsIcEE(ptr noundef nonnull align 8 dereferenceable(16) %this, i64 %s.coerce0, ptr %s.coerce1) unnamed_addr #5 comdat align 2 {
entry:
  %s = alloca %"class.std::basic_string_view", align 8
  %this.addr = alloca ptr, align 8
  %agg.tmp = alloca %"class.std::basic_string_view", align 8
  %0 = getelementptr inbounds { i64, ptr }, ptr %s, i32 0, i32 0
  store i64 %s.coerce0, ptr %0, align 8
  %1 = getelementptr inbounds { i64, ptr }, ptr %s, i32 0, i32 1
  store ptr %s.coerce1, ptr %1, align 8
  store ptr %this, ptr %this.addr, align 8
  %this1 = load ptr, ptr %this.addr, align 8
  %spec_ = getelementptr inbounds %"class.absl::lts_20230802::UntypedFormatSpec", ptr %this1, i32 0, i32 0
  call void @llvm.memcpy.p0.p0.i64(ptr align 8 %agg.tmp, ptr align 8 %s, i64 16, i1 false)
  %2 = getelementptr inbounds { i64, ptr }, ptr %agg.tmp, i32 0, i32 0
  %3 = load i64, ptr %2, align 8
  %4 = getelementptr inbounds { i64, ptr }, ptr %agg.tmp, i32 0, i32 1
  %5 = load ptr, ptr %4, align 8
  call void @_ZN4absl12lts_2023080219str_format_internal21UntypedFormatSpecImplC2ESt17basic_string_viewIcSt11char_traitsIcEE(ptr noundef nonnull align 8 dereferenceable(16) %spec_, i64 %3, ptr %5)
  ret void
}

; Function Attrs: mustprogress nounwind uwtable
define linkonce_odr void @_ZNSt17basic_string_viewIcSt11char_traitsIcEEC2EPKc(ptr noundef nonnull align 8 dereferenceable(16) %this, ptr noundef nonnull %__str) unnamed_addr #4 comdat align 2 {
entry:
  %this.addr = alloca ptr, align 8
  %__str.addr = alloca ptr, align 8
  store ptr %this, ptr %this.addr, align 8
  store ptr %__str, ptr %__str.addr, align 8
  %this1 = load ptr, ptr %this.addr, align 8
  %_M_len = getelementptr inbounds %"class.std::basic_string_view", ptr %this1, i32 0, i32 0
  %0 = load ptr, ptr %__str.addr, align 8
  %call = call noundef i64 @_ZNSt11char_traitsIcE6lengthEPKc(ptr noundef %0)
  store i64 %call, ptr %_M_len, align 8
  %_M_str = getelementptr inbounds %"class.std::basic_string_view", ptr %this1, i32 0, i32 1
  %1 = load ptr, ptr %__str.addr, align 8
  store ptr %1, ptr %_M_str, align 8
  ret void
}

; Function Attrs: mustprogress uwtable
define linkonce_odr void @_ZN4absl12lts_202308029StrFormatIJNSt7__cxx1112basic_stringIcSt11char_traitsIcESaIcEEEtEEES7_RKNS0_19str_format_internal18FormatSpecTemplateIJXspclsr19str_format_internalE14ArgumentToConvIT_EEEEEEDpRKSA_(ptr noalias sret(%"class.std::__cxx11::basic_string") align 8 %agg.result, ptr noundef nonnull align 8 dereferenceable(16) %format, ptr noundef nonnull align 8 dereferenceable(32) %args, ptr noundef nonnull align 2 dereferenceable(2) %args1) #5 comdat {
entry:
  %result.ptr = alloca ptr, align 8
  %format.addr = alloca ptr, align 8
  %args.addr = alloca ptr, align 8
  %args.addr2 = alloca ptr, align 8
  %agg.tmp = alloca %"class.absl::lts_20230802::str_format_internal::UntypedFormatSpecImpl", align 8
  %agg.tmp3 = alloca %"class.absl::lts_20230802::Span", align 8
  %agg.tmp4 = alloca %"class.std::initializer_list", align 8
  %ref.tmp = alloca [2 x %"class.absl::lts_20230802::str_format_internal::FormatArgImpl"], align 8
  store ptr %agg.result, ptr %result.ptr, align 8
  store ptr %format, ptr %format.addr, align 8
  store ptr %args, ptr %args.addr, align 8
  store ptr %args1, ptr %args.addr2, align 8
  %0 = load ptr, ptr %format.addr, align 8
  %call = call noundef nonnull align 8 dereferenceable(16) ptr @_ZN4absl12lts_2023080219str_format_internal21UntypedFormatSpecImpl7ExtractINS1_18FormatSpecTemplateIJLNS0_23FormatConversionCharSetE524292ELS5_655355EEEEEERKS2_RKT_(ptr noundef nonnull align 8 dereferenceable(16) %0)
  call void @llvm.memcpy.p0.p0.i64(ptr align 8 %agg.tmp, ptr align 8 %call, i64 16, i1 false)
  %arrayinit.begin = getelementptr inbounds [2 x %"class.absl::lts_20230802::str_format_internal::FormatArgImpl"], ptr %ref.tmp, i64 0, i64 0
  %1 = load ptr, ptr %args.addr, align 8
  call void @_ZN4absl12lts_2023080219str_format_internal13FormatArgImplC2INSt7__cxx1112basic_stringIcSt11char_traitsIcESaIcEEEEERKT_(ptr noundef nonnull align 8 dereferenceable(16) %arrayinit.begin, ptr noundef nonnull align 8 dereferenceable(32) %1)
  %arrayinit.element = getelementptr inbounds %"class.absl::lts_20230802::str_format_internal::FormatArgImpl", ptr %arrayinit.begin, i64 1
  %2 = load ptr, ptr %args.addr2, align 8
  call void @_ZN4absl12lts_2023080219str_format_internal13FormatArgImplC2ItEERKT_(ptr noundef nonnull align 8 dereferenceable(16) %arrayinit.element, ptr noundef nonnull align 2 dereferenceable(2) %2)
  %_M_array = getelementptr inbounds %"class.std::initializer_list", ptr %agg.tmp4, i32 0, i32 0
  %arraystart = getelementptr inbounds [2 x %"class.absl::lts_20230802::str_format_internal::FormatArgImpl"], ptr %ref.tmp, i64 0, i64 0
  store ptr %arraystart, ptr %_M_array, align 8
  %_M_len = getelementptr inbounds %"class.std::initializer_list", ptr %agg.tmp4, i32 0, i32 1
  store i64 2, ptr %_M_len, align 8
  %3 = getelementptr inbounds { ptr, i64 }, ptr %agg.tmp4, i32 0, i32 0
  %4 = load ptr, ptr %3, align 8
  %5 = getelementptr inbounds { ptr, i64 }, ptr %agg.tmp4, i32 0, i32 1
  %6 = load i64, ptr %5, align 8
  call void @_ZN4absl12lts_202308024SpanIKNS0_19str_format_internal13FormatArgImplEEC2IS4_S4_EESt16initializer_listIS3_E(ptr noundef nonnull align 8 dereferenceable(16) %agg.tmp3, ptr %4, i64 %6) #3
  %7 = getelementptr inbounds { ptr, i64 }, ptr %agg.tmp, i32 0, i32 0
  %8 = load ptr, ptr %7, align 8
  %9 = getelementptr inbounds { ptr, i64 }, ptr %agg.tmp, i32 0, i32 1
  %10 = load i64, ptr %9, align 8
  %11 = getelementptr inbounds { ptr, i64 }, ptr %agg.tmp3, i32 0, i32 0
  %12 = load ptr, ptr %11, align 8
  %13 = getelementptr inbounds { ptr, i64 }, ptr %agg.tmp3, i32 0, i32 1
  %14 = load i64, ptr %13, align 8
  call void @_ZN4absl12lts_2023080219str_format_internal10FormatPackB5cxx11ENS1_21UntypedFormatSpecImplENS0_4SpanIKNS1_13FormatArgImplEEE(ptr sret(%"class.std::__cxx11::basic_string") align 8 %agg.result, ptr %8, i64 %10, ptr %12, i64 %14)
  ret void
}

; Function Attrs: mustprogress uwtable
define linkonce_odr void @_ZN4absl12lts_2023080219str_format_internal18FormatSpecTemplateIJLNS0_23FormatConversionCharSetE524292ELS3_655355EEEC2EUa9enable_ifIXclL_ZNS1_15ValidFormatImplIJLS3_524292ELS3_655355EEEEbSt17basic_string_viewIcSt11char_traitsIcEEEfL0p_EEEPKc(ptr noundef nonnull align 8 dereferenceable(16) %this, ptr noundef %s) unnamed_addr #5 comdat align 2 {
entry:
  %this.addr = alloca ptr, align 8
  %s.addr = alloca ptr, align 8
  %agg.tmp = alloca %"class.std::basic_string_view", align 8
  store ptr %this, ptr %this.addr, align 8
  store ptr %s, ptr %s.addr, align 8
  %this1 = load ptr, ptr %this.addr, align 8
  %0 = load ptr, ptr %s.addr, align 8
  call void @_ZNSt17basic_string_viewIcSt11char_traitsIcEEC2EPKc(ptr noundef nonnull align 8 dereferenceable(16) %agg.tmp, ptr noundef %0) #3
  %1 = getelementptr inbounds { i64, ptr }, ptr %agg.tmp, i32 0, i32 0
  %2 = load i64, ptr %1, align 8
  %3 = getelementptr inbounds { i64, ptr }, ptr %agg.tmp, i32 0, i32 1
  %4 = load ptr, ptr %3, align 8
  call void @_ZN4absl12lts_2023080217UntypedFormatSpecC2ESt17basic_string_viewIcSt11char_traitsIcEE(ptr noundef nonnull align 8 dereferenceable(16) %this1, i64 %2, ptr %4)
  ret void
}

; Function Attrs: mustprogress uwtable
define void @_ZNK9grpc_core5Party16ActivityDebugTagB5cxx11Et(ptr noalias sret(%"class.std::__cxx11::basic_string") align 8 %agg.result, ptr noundef nonnull align 8 dereferenceable(168) %this, i16 noundef zeroext %wakeup_mask) unnamed_addr #5 align 2 personality ptr @__gxx_personality_v0 {
entry:
  %result.ptr = alloca ptr, align 8
  %this.addr = alloca ptr, align 8
  %wakeup_mask.addr = alloca i16, align 2
  %ref.tmp = alloca %"class.absl::lts_20230802::str_format_internal::FormatSpecTemplate", align 8
  %ref.tmp2 = alloca %"class.std::__cxx11::basic_string", align 8
  %exn.slot = alloca ptr, align 8
  %ehselector.slot = alloca i32, align 4
  store ptr %agg.result, ptr %result.ptr, align 8
  store ptr %this, ptr %this.addr, align 8
  store i16 %wakeup_mask, ptr %wakeup_mask.addr, align 2
  %this1 = load ptr, ptr %this.addr, align 8
  call void @_ZN4absl12lts_2023080219str_format_internal18FormatSpecTemplateIJLNS0_23FormatConversionCharSetE524292ELS3_655355EEEC2EUa9enable_ifIXclL_ZNS1_15ValidFormatImplIJLS3_524292ELS3_655355EEEEbSt17basic_string_viewIcSt11char_traitsIcEEEfL0p_EEEPKc(ptr noundef nonnull align 8 dereferenceable(16) %ref.tmp, ptr noundef @.str)
  %vtable = load ptr, ptr %this1, align 8
  %vfn = getelementptr inbounds ptr, ptr %vtable, i64 7
  %0 = load ptr, ptr %vfn, align 8
  call void %0(ptr sret(%"class.std::__cxx11::basic_string") align 8 %ref.tmp2, ptr noundef nonnull align 8 dereferenceable(8) %this1)
  invoke void @_ZN4absl12lts_202308029StrFormatIJNSt7__cxx1112basic_stringIcSt11char_traitsIcESaIcEEEtEEES7_RKNS0_19str_format_internal18FormatSpecTemplateIJXspclsr19str_format_internalE14ArgumentToConvIT_EEEEEEDpRKSA_(ptr sret(%"class.std::__cxx11::basic_string") align 8 %agg.result, ptr noundef nonnull align 8 dereferenceable(16) %ref.tmp, ptr noundef nonnull align 8 dereferenceable(32) %ref.tmp2, ptr noundef nonnull align 2 dereferenceable(2) %wakeup_mask.addr)
          to label %invoke.cont unwind label %lpad

invoke.cont:                                      ; preds = %entry
  call void @_ZNSt7__cxx1112basic_stringIcSt11char_traitsIcESaIcEED1Ev(ptr noundef nonnull align 8 dereferenceable(32) %ref.tmp2) #3
  ret void

lpad:                                             ; preds = %entry
  %1 = landingpad { ptr, i32 }
          cleanup
  %2 = extractvalue { ptr, i32 } %1, 0
  store ptr %2, ptr %exn.slot, align 8
  %3 = extractvalue { ptr, i32 } %1, 1
  store i32 %3, ptr %ehselector.slot, align 4
  call void @_ZNSt7__cxx1112basic_stringIcSt11char_traitsIcESaIcEED1Ev(ptr noundef nonnull align 8 dereferenceable(32) %ref.tmp2) #3
  br label %eh.resume

eh.resume:                                        ; preds = %lpad
  %exn = load ptr, ptr %exn.slot, align 8
  %sel = load i32, ptr %ehselector.slot, align 4
  %lpad.val = insertvalue { ptr, i32 } poison, ptr %exn, 0
  %lpad.val3 = insertvalue { ptr, i32 } %lpad.val, i32 %sel, 1
  resume { ptr, i32 } %lpad.val3
}