; Function Attrs: mustprogress uwtable
define void @_ZNK9grpc_core5Party16ActivityDebugTagB5cxx11Et(ptr noalias sret(%"class.std::__cxx11::basic_string") align 8 %agg.result, ptr noundef nonnull align 8 dereferenceable(168) %this, i16 noundef zeroext %wakeup_mask) unnamed_addr #5 align 2 personality ptr @__gxx_personality_v0 {
entry:
  %ref.tmp.i = alloca [2 x %"class.absl::lts_20230802::str_format_internal::FormatArgImpl"], align 8
  %ref.tmp2 = alloca %"class.std::__cxx11::basic_string", align 8
  %vtable = load ptr, ptr %this, align 8
  %vfn = getelementptr inbounds i8, ptr %vtable, i64 56
  %0 = load ptr, ptr %vfn, align 8
  call void %0(ptr nonnull sret(%"class.std::__cxx11::basic_string") align 8 %ref.tmp2, ptr noundef nonnull align 8 dereferenceable(8) %this)
  call void @llvm.lifetime.start.p0(i64 32, ptr nonnull %ref.tmp.i)
  store ptr %ref.tmp2, ptr %ref.tmp.i, align 8, !noalias !7
  %dispatcher_.i.i.i = getelementptr inbounds i8, ptr %ref.tmp.i, i64 8
  store ptr @_ZN4absl12lts_2023080219str_format_internal13FormatArgImpl8DispatchINSt7__cxx1112basic_stringIcSt11char_traitsIcESaIcEEEEEbNS2_4DataENS1_24FormatConversionSpecImplEPv, ptr %dispatcher_.i.i.i, align 8, !noalias !7
  %arrayinit.element.i = getelementptr inbounds i8, ptr %ref.tmp.i, i64 16
  %retval.sroa.0.0.insert.ext.i.i.i.i = zext i16 %wakeup_mask to i64
  %1 = inttoptr i64 %retval.sroa.0.0.insert.ext.i.i.i.i to ptr
  store ptr %1, ptr %arrayinit.element.i, align 8, !noalias !7
  %dispatcher_.i.i1.i = getelementptr inbounds i8, ptr %ref.tmp.i, i64 24
  store ptr @_ZN4absl12lts_2023080219str_format_internal13FormatArgImpl8DispatchItEEbNS2_4DataENS1_24FormatConversionSpecImplEPv, ptr %dispatcher_.i.i1.i, align 8, !noalias !7
  invoke void @_ZN4absl12lts_2023080219str_format_internal10FormatPackB5cxx11ENS1_21UntypedFormatSpecImplENS0_4SpanIKNS1_13FormatArgImplEEE(ptr sret(%"class.std::__cxx11::basic_string") align 8 %agg.result, ptr nonnull @.str, i64 13, ptr nonnull %ref.tmp.i, i64 2)
          to label %invoke.cont unwind label %lpad

invoke.cont:                                      ; preds = %entry
  call void @llvm.lifetime.end.p0(i64 32, ptr nonnull %ref.tmp.i)
  call void @_ZNSt7__cxx1112basic_stringIcSt11char_traitsIcESaIcEED1Ev(ptr noundef nonnull align 8 dereferenceable(32) %ref.tmp2) #26
  ret void

lpad:                                             ; preds = %entry
  %2 = landingpad { ptr, i32 }
          cleanup
  call void @_ZNSt7__cxx1112basic_stringIcSt11char_traitsIcESaIcEED1Ev(ptr noundef nonnull align 8 dereferenceable(32) %ref.tmp2) #26
  resume { ptr, i32 } %2
}